; Function Attrs: mustprogress uwtable
define hidden void @_ZN12mpfx_manager3setER4mpfxl(ptr noundef nonnull align 8 dereferenceable(85) %0, ptr noundef nonnull align 4 captures(none) dereferenceable(4) %1, i64 noundef %2) local_unnamed_addr #3 align 2 {
  %4 = load i32, ptr %0, align 8, !tbaa !13
  %5 = icmp eq i32 %4, 1
  %6 = add i64 %2, -4294967296
  %or.cond = icmp ult i64 %6, -8589934591
  %or.cond11 = and i1 %or.cond, %5
  br i1 %or.cond11, label %7, label %9

7:                                                ; preds = %3
  %8 = tail call ptr @__cxa_allocate_exception(i64 8) #24
  store ptr getelementptr inbounds nuw inrange(-16, 32) (i8, ptr @_ZTVN12mpfx_manager18overflow_exceptionE, i64 16), ptr %8, align 8, !tbaa !27
  tail call void @__cxa_throw(ptr nonnull %8, ptr nonnull @_ZTIN12mpfx_manager18overflow_exceptionE, ptr nonnull @_ZNSt9exceptionD2Ev) #26
  unreachable

9:                                                ; preds = %3
  %10 = icmp eq i64 %2, 0
  br i1 %10, label %11, label %46

11:                                               ; preds = %9
  %12 = load i32, ptr %1, align 4
  %.not.i.i = icmp ult i32 %12, 2
  br i1 %.not.i.i, label %_ZN12mpfx_manager5resetER4mpfx.exit, label %13

13:                                               ; preds = %11
  %14 = lshr i32 %12, 1
  %15 = tail call noundef zeroext i1 @_ZN6memory16is_out_of_memoryEv()
  br i1 %15, label %_ZN6id_gen7recycleEj.exit.i.i, label %16

16:                                               ; preds = %13
  %17 = getelementptr inbounds nuw i8, ptr %0, i64 40
  %18 = load ptr, ptr %17, align 8, !tbaa !3
  %19 = icmp eq ptr %18, null
  br i1 %19, label %26, label %20

20:                                               ; preds = %16
  %21 = getelementptr inbounds i8, ptr %18, i64 -4
  %22 = load i32, ptr %21, align 4, !tbaa !22
  %23 = getelementptr inbounds i8, ptr %18, i64 -8
  %24 = load i32, ptr %23, align 4, !tbaa !22
  %25 = icmp eq i32 %22, %24
  br i1 %25, label %26, label %_ZN6vectorIjLb0EjE9push_backERKj.exit.i.i.i

26:                                               ; preds = %20, %16
  tail call void @_ZN6vectorIjLb0EjE13expand_vectorEv(ptr noundef nonnull align 8 dereferenceable(8) %17)
  %.pre.i.i.i.i = load ptr, ptr %17, align 8, !tbaa !3
  %.phi.trans.insert.i.i.i.i = getelementptr inbounds i8, ptr %.pre.i.i.i.i, i64 -4
  %.pre2.i.i.i.i = load i32, ptr %.phi.trans.insert.i.i.i.i, align 4, !tbaa !22
  br label %_ZN6vectorIjLb0EjE9push_backERKj.exit.i.i.i

_ZN6vectorIjLb0EjE9push_backERKj.exit.i.i.i:      ; preds = %26, %20
  %27 = phi i32 [ %.pre2.i.i.i.i, %26 ], [ %22, %20 ]
  %28 = phi ptr [ %.pre.i.i.i.i, %26 ], [ %18, %20 ]
  %29 = getelementptr inbounds i8, ptr %28, i64 -4
  %30 = zext i32 %27 to i64
  %31 = getelementptr inbounds nuw i32, ptr %28, i64 %30
  store i32 %14, ptr %31, align 4, !tbaa !22
  %32 = add i32 %27, 1
  store i32 %32, ptr %29, align 4, !tbaa !22
  br label %_ZN6id_gen7recycleEj.exit.i.i

_ZN6id_gen7recycleEj.exit.i.i:                    ; preds = %_ZN6vectorIjLb0EjE9push_backERKj.exit.i.i.i, %13
  %33 = getelementptr inbounds nuw i8, ptr %0, i64 16
  %34 = load ptr, ptr %33, align 8, !tbaa !3
  %35 = load i32, ptr %1, align 4
  %36 = lshr i32 %35, 1
  %37 = getelementptr inbounds nuw i8, ptr %0, i64 8
  %38 = load i32, ptr %37, align 8, !tbaa !19
  %39 = mul i32 %36, %38
  %40 = zext i32 %39 to i64
  %41 = getelementptr inbounds nuw i32, ptr %34, i64 %40
  %.not10.i.i = icmp eq i32 %38, 0
  br i1 %.not10.i.i, label %_ZN12mpfx_manager5resetER4mpfx.exit, label %.lr.ph.i.i

.lr.ph.i.i:                                       ; preds = %_ZN6id_gen7recycleEj.exit.i.i, %.lr.ph.i.i
  %indvars.iv.i.i = phi i64 [ %indvars.iv.next.i.i, %.lr.ph.i.i ], [ 0, %_ZN6id_gen7recycleEj.exit.i.i ]
  %42 = getelementptr inbounds nuw i32, ptr %41, i64 %indvars.iv.i.i
  store i32 0, ptr %42, align 4, !tbaa !22
  %indvars.iv.next.i.i = add nuw nsw i64 %indvars.iv.i.i, 1
  %43 = load i32, ptr %37, align 8, !tbaa !19
  %44 = zext i32 %43 to i64
  %45 = icmp samesign ult i64 %indvars.iv.next.i.i, %44
  br i1 %45, label %.lr.ph.i.i, label %_ZN12mpfx_manager5resetER4mpfx.exit, !llvm.loop !26

_ZN12mpfx_manager5resetER4mpfx.exit:              ; preds = %.lr.ph.i.i, %11, %_ZN6id_gen7recycleEj.exit.i.i
  store i32 0, ptr %1, align 4
  br label %53

46:                                               ; preds = %9
  %47 = icmp slt i64 %2, 0
  br i1 %47, label %48, label %52

48:                                               ; preds = %46
  %49 = sub nsw i64 0, %2
  tail call void @_ZN12mpfx_manager3setER4mpfxm(ptr noundef nonnull align 8 dereferenceable(85) %0, ptr noundef nonnull align 4 dereferenceable(4) %1, i64 noundef %49)
  %50 = load i32, ptr %1, align 4
  %51 = or i32 %50, 1
  store i32 %51, ptr %1, align 4
  br label %53

52:                                               ; preds = %46
  tail call void @_ZN12mpfx_manager3setER4mpfxm(ptr noundef nonnull align 8 dereferenceable(85) %0, ptr noundef nonnull align 4 dereferenceable(4) %1, i64 noundef %2)
  br label %53

53:                                               ; preds = %48, %52, %_ZN12mpfx_manager5resetER4mpfx.exit
  ret void
}